(dp0
(iparticle_structures
ParticleID
p1
(dp2
S'EventID'
p3
I25690441
sS'TrackID'
p4
I1005
sb(iparticle_structures
ParticleFlow
p5
(dp6
g3
I25690441
sS'DaughterDetectors'
p7
(dp8
sg4
I1005
sS'ParentDetectors'
p9
(dp10
I1
(lp11
(iparticle_structures
DetectorHit
p12
(dp13
S'Pz'
p14
F100303.0
sS'Px'
p15
F35.927
sS'Py'
p16
F2059.21
sS'Y'
p17
F-630.7665999999999
sS'X'
p18
F0.814434
sS'Detector'
p19
I1
sS'Z'
p20
F4708.91
sbaI1004
aI2212
asI6
(lp21
(iparticle_structures
DetectorHit
p22
(dp23
g14
F100315.0
sg15
F95.399
sg16
F1316.12
sg17
F-300.8734
sg18
F7.80309
sg19
I6
sg20
F21786.8
sbaI1004
aI2212
asI7
(lp24
(iparticle_structures
DetectorHit
p25
(dp26
g14
F100317.0
sg15
F95.2218
sg16
F1181.08
sg17
F-285.9344
sg18
F8.95422
sg19
I7
sg20
F22997.6
sbaI1004
aI2212
asI8
(lp27
(iparticle_structures
DetectorHit
p28
(dp29
g14
F100316.0
sg15
F58.101
sg16
F1224.61
sg17
F-246.10139999999996
sg18
F11.8373
sg19
I8
sg20
F26350.1
sbaI1004
aI2212
asI9
(lp30
(iparticle_structures
DetectorHit
p31
(dp32
g14
F100316.0
sg15
F32.3467
sg16
F1250.89
sg17
F-232.93739999999997
sg18
F12.3183
sg19
I9
sg20
F27416.9
sbaI1004
aI2212
asI10
(lp33
(iparticle_structures
DetectorHit
p34
(dp35
g14
F100315.0
sg15
F24.1435
sg16
F1258.56
sg17
F-218.9054
sg18
F12.601
sg19
I10
sg20
F28536.2
sbaI1004
aI2212
asI11
(lp36
(iparticle_structures
DetectorHit
p37
(dp38
g14
F100315.0
sg15
F22.8047
sg16
F1258.7
sg17
F-175.30539999999996
sg18
F13.4137
sg19
I11
sg20
F32011.3
sbaI1004
aI2212
asI13
(lp39
(iparticle_structures
DetectorHit
p40
(dp41
g14
F100314.0
sg15
F24.0439
sg16
F1258.66
sg17
F-122.1214
sg18
F14.3966
sg19
I13
sg20
F36250.4
sbaI1004
aI2212
asI14
(lp42
(iparticle_structures
DetectorHit
p43
(dp44
g14
F100314.0
sg15
F24.911
sg16
F1257.16
sg17
F-109.60839999999996
sg18
F14.6409
sg19
I14
sg20
F37248.2
sbaI1004
aI2212
asI15
(lp45
(iparticle_structures
DetectorHit
p46
(dp47
g14
F100314.0
sg15
F24.4491
sg16
F1257.98
sg17
F-96.61939999999993
sg18
F14.8963
sg19
I15
sg20
F38284.2
sbaI1004
aI2212
asI16
(lp48
(iparticle_structures
DetectorHit
p49
(dp50
g14
F100314.0
sg15
F65.7054
sg16
F1251.11
sg17
F-54.63040000000001
sg18
F16.0496
sg19
I16
sg20
F41636.6
sbaI1004
aI2212
asI17
(lp51
(iparticle_structures
DetectorHit
p52
(dp53
g14
F100316.0
sg15
F103.312
sg16
F1018.66
sg17
F-14.888399999999933
sg18
F19.2343
sg19
I17
sg20
F44989.1
sbaI1004
aI2212
asI18
(lp54
(iparticle_structures
DetectorHit
p55
(dp56
g14
F100317.0
sg15
F-20.9721
sg16
F968.231
sg17
F15.735599999999977
sg18
F21.683
sg19
I18
sg20
F48341.7
sbaI1004
aI2212
asI19
(lp57
(iparticle_structures
DetectorHit
p58
(dp59
g14
F100318.0
sg15
F-128.718
sg16
F855.071
sg17
F49.10760000000005
sg18
F18.0556
sg19
I19
sg20
F51694.0
sbaI1004
aI2212
assS'Detectors'
p60
(dp61
I26
(iparticle_structures
DetectorHit
p62
(dp63
g14
F99069.9
sg15
F-586.705
sg16
F749.996
sg17
F429.15560000000005
sg18
F-151.196
sg19
I26
sg20
F122582.0
sbssS'MostUpstreamDetector'
p64
I26
sS'ParentID'
p65
I1004
sS'PDG'
p66
I2212
sbs(iparticle_structures
ParticleID
p67
(dp68
g3
I14755181
sg4
I1005
sb(iparticle_structures
ParticleFlow
p69
(dp70
g3
I14755181
sg7
(dp71
sg4
I1005
sg9
(dp72
I1
(lp73
(iparticle_structures
DetectorHit
p74
(dp75
g14
F100910.0
sg15
F-33.0528
sg16
F2106.34
sg17
F-629.9771
sg18
F-3.6182
sg19
I1
sg20
F4708.89
sbaI1004
aI2212
assg60
(dp76
I26
(iparticle_structures
DetectorHit
p77
(dp78
g14
F99931.2
sg15
F118.186
sg16
F884.527
sg17
F558.6256000000001
sg18
F48.9788
sg19
I26
sg20
F122582.0
sbssg64
I26
sg65
I1004
sg66
I2212
sbs(iparticle_structures
ParticleID
p79
(dp80
g3
I15375527
sg4
I1004
sb(iparticle_structures
ParticleFlow
p81
(dp82
g3
I15375527
sg7
(dp83
sg4
I1004
sg9
(dp84
I1
(lp85
(iparticle_structures
DetectorHit
p86
(dp87
g14
F116365.0
sg15
F-31.7897
sg16
F2344.23
sg17
F-634.3038
sg18
F-1.7933
sg19
I1
sg20
F4708.99
sbaI1001
aI2212
asI6
(lp88
(iparticle_structures
DetectorHit
p89
(dp90
g14
F116378.0
sg15
F-92.0922
sg16
F1538.37
sg17
F-307.4204
sg18
F-7.01546
sg19
I6
sg20
F21786.9
sbaI1001
aI2212
asI7
(lp91
(iparticle_structures
DetectorHit
p92
(dp93
g14
F116172.0
sg15
F-23.1559
sg16
F1369.14
sg17
F-292.50239999999997
sg18
F-7.3688
sg19
I7
sg20
F22997.7
sbaI1001
aI2212
asI8
(lp94
(iparticle_structures
DetectorHit
p95
(dp96
g14
F116171.0
sg15
F2.99589
sg16
F1434.29
sg17
F-252.52339999999998
sg18
F-7.85687
sg19
I8
sg20
F26350.2
sbaI1001
aI2212
asI9
(lp97
(iparticle_structures
DetectorHit
p98
(dp99
g14
F116170.0
sg15
F20.0924
sg16
F1474.1
sg17
F-239.16539999999998
sg18
F-7.74993
sg19
I9
sg20
F27417.0
sbaI1001
aI2212
asI10
(lp100
(iparticle_structures
DetectorHit
p101
(dp102
g14
F116170.0
sg15
F25.2043
sg16
F1486.25
sg17
F-224.86039999999997
sg18
F-7.51151
sg19
I10
sg20
F28536.3
sbaI1001
aI2212
asI11
(lp103
(iparticle_structures
DetectorHit
p104
(dp105
g14
F116169.0
sg15
F25.3034
sg16
F1487.05
sg17
F-180.39739999999995
sg18
F-6.7457
sg19
I11
sg20
F32011.4
sbaI1001
aI2212
asI13
(lp106
(iparticle_structures
DetectorHit
p107
(dp108
g14
F116168.0
sg15
F24.5113
sg16
F1487.83
sg17
F-126.11439999999993
sg18
F-5.84504
sg19
I13
sg20
F36250.5
sbaI1001
aI2212
asI14
(lp109
(iparticle_structures
DetectorHit
p110
(dp111
g14
F116168.0
sg15
F24.7142
sg16
F1488.19
sg17
F-113.33339999999998
sg18
F-5.63537
sg19
I14
sg20
F37248.3
sbaI1001
aI2212
asI15
(lp112
(iparticle_structures
DetectorHit
p113
(dp114
g14
F116168.0
sg15
F25.3637
sg16
F1487.9
sg17
F-100.06240000000003
sg18
F-5.4121
sg19
I15
sg20
F38284.3
sbaI1001
aI2212
asI16
(lp115
(iparticle_structures
DetectorHit
p116
(dp117
g14
F116168.0
sg15
F12.6968
sg16
F1486.69
sg17
F-57.13639999999998
sg18
F-4.76618
sg19
I16
sg20
F41636.6
sbaI1001
aI2212
asI17
(lp118
(iparticle_structures
DetectorHit
p119
(dp120
g14
F116170.0
sg15
F1.91839
sg16
F1263.59
sg17
F-15.875400000000013
sg18
F-4.64727
sg19
I17
sg20
F44989.1
sbaI1001
aI2212
asI18
(lp121
(iparticle_structures
DetectorHit
p122
(dp123
g14
F116170.0
sg15
F28.9199
sg16
F1255.94
sg17
F17.982600000000048
sg18
F-4.39791
sg19
I18
sg20
F48341.6
sbaI1001
aI2212
asI19
(lp124
(iparticle_structures
DetectorHit
p125
(dp126
g14
F116171.0
sg15
F54.9141
sg16
F1211.37
sg17
F56.32060000000001
sg18
F-3.03245
sg19
I19
sg20
F51693.9
sbaI1001
aI2212
asI20
(lp127
(iparticle_structures
DetectorHit
p128
(dp129
g14
F116171.0
sg15
F64.381
sg16
F1040.99
sg17
F141.3506
sg18
F2.07158
sg19
I20
sg20
F60999.5
sbaI1001
aI2212
asI21
(lp130
(iparticle_structures
DetectorHit
p131
(dp132
g14
F114898.0
sg15
F114.234
sg16
F768.113
sg17
F456.15560000000005
sg18
F45.8032
sg19
I21
sg20
F107602.0
sbaI1002
aI2212
asI22
(lp133
(iparticle_structures
DetectorHit
p134
(dp135
g14
F114898.0
sg15
F115.353
sg16
F767.704
sg17
F469.0856000000001
sg18
F47.7355
sg19
I22
sg20
F109537.0
sbaI1002
aI2212
asI23
(lp136
(iparticle_structures
DetectorHit
p137
(dp138
g14
F114898.0
sg15
F115.671
sg16
F767.314
sg17
F478.50559999999996
sg18
F49.1515
sg19
I23
sg20
F110947.0
sbaI1002
aI2212
assg60
(dp139
I24
(iparticle_structures
DetectorHit
p140
(dp141
g14
F112966.0
sg15
F-130.068
sg16
F1030.56
sg17
F516.1156000000001
sg18
F46.0004
sg19
I24
sg20
F115337.0
sbsI25
(iparticle_structures
DetectorHit
p142
(dp143
g14
F112965.0
sg15
F-131.047
sg16
F1030.57
sg17
F541.4756
sg18
F42.7946
sg19
I25
sg20
F118117.0
sbsI26
(iparticle_structures
DetectorHit
p144
(dp145
g14
F112964.0
sg15
F-133.44
sg16
F1029.68
sg17
F582.2056
sg18
F37.5559
sg19
I26
sg20
F122582.0
sbssg64
I24
sg65
I1002
sg66
I2212
sbs(iparticle_structures
ParticleID
p146
(dp147
g3
I6165151
sg4
I1006
sb(iparticle_structures
ParticleFlow
p148
(dp149
g3
I6165151
sg7
(dp150
sg4
I1006
sg9
(dp151
sg60
(dp152
I1
(iparticle_structures
DetectorHit
p153
(dp154
g14
F94080.3
sg15
F39.3728
sg16
F1964.22
sg17
F-629.5032
sg18
F3.84038
sg19
I1
sg20
F4708.88
sbsI6
(iparticle_structures
DetectorHit
p155
(dp156
g14
F94091.9
sg15
F104.343
sg16
F1283.56
sg17
F-294.0134
sg18
F10.1957
sg19
I6
sg20
F21786.7
sbsI7
(iparticle_structures
DetectorHit
p157
(dp158
g14
F94093.6
sg15
F103.612
sg16
F1146.11
sg17
F-278.52139999999997
sg18
F11.5356
sg19
I7
sg20
F22997.5
sbsI8
(iparticle_structures
DetectorHit
p159
(dp160
g14
F94093.4
sg15
F56.5908
sg16
F1161.84
sg17
F-237.5394
sg18
F14.8251
sg19
I8
sg20
F26349.9
sbsI9
(iparticle_structures
DetectorHit
p161
(dp162
g14
F94093.1
sg15
F23.4071
sg16
F1169.0
sg17
F-224.32439999999997
sg18
F15.2771
sg19
I9
sg20
F27416.8
sbsI10
(iparticle_structures
DetectorHit
p163
(dp164
g14
F94092.8
sg15
F12.4928
sg16
F1171.45
sg17
F-210.39739999999995
sg18
F15.4479
sg19
I10
sg20
F28536.1
sbsI11
(iparticle_structures
DetectorHit
p165
(dp166
g14
F94092.3
sg15
F10.755
sg16
F1173.87
sg17
F-167.11339999999996
sg18
F15.8764
sg19
I11
sg20
F32011.2
sbsI13
(iparticle_structures
DetectorHit
p167
(dp168
g14
F94058.2
sg15
F-0.959306
sg16
F1178.02
sg17
F-114.14839999999992
sg18
F16.1725
sg19
I13
sg20
F36250.3
sbsI14
(iparticle_structures
DetectorHit
p169
(dp170
g14
F94058.0
sg15
F-1.56684
sg16
F1177.56
sg17
F-101.65340000000003
sg18
F16.1597
sg19
I14
sg20
F37248.1
sbsI15
(iparticle_structures
DetectorHit
p171
(dp172
g14
F94057.7
sg15
F-1.66396
sg16
F1178.13
sg17
F-88.67939999999999
sg18
F16.1411
sg19
I15
sg20
F38284.1
sbsI26
(iparticle_structures
DetectorHit
p173
(dp174
g14
F93150.1
sg15
F-164.589
sg16
F618.669
sg17
F508.9856
sg18
F-98.1107
sg19
I26
sg20
F122582.0
sbssg64
I1
sg65
I1
sg66
I2212
sbs(iparticle_structures
ParticleID
p175
(dp176
g3
I16718858
sg4
I1004
sb(iparticle_structures
ParticleFlow
p177
(dp178
g3
I16718858
sg7
(dp179
sg4
I1004
sg9
(dp180
I1
(lp181
(iparticle_structures
DetectorHit
p182
(dp183
g14
F105447.0
sg15
F-11.5914
sg16
F2152.83
sg17
F-635.3269
sg18
F-0.379908
sg19
I1
sg20
F4709.02
sbaI1003
aI2212
asI6
(lp184
(iparticle_structures
DetectorHit
p185
(dp186
g14
F105460.0
sg15
F-33.0312
sg16
F1364.37
sg17
F-305.50239999999997
sg18
F-2.6456
sg19
I6
sg20
F21786.8
sbaI1003
aI2212
asI7
(lp187
(iparticle_structures
DetectorHit
p188
(dp189
g14
F105461.0
sg15
F-32.8315
sg16
F1230.85
sg17
F-290.72839999999997
sg18
F-3.02393
sg19
I7
sg20
F22997.7
sbaI1003
aI2212
asI8
(lp190
(iparticle_structures
DetectorHit
p191
(dp192
g14
F105460.0
sg15
F-21.0923
sg16
F1291.35
sg17
F-251.1234
sg18
F-3.99308
sg19
I8
sg20
F26350.2
sbaI1003
aI2212
asI9
(lp193
(iparticle_structures
DetectorHit
p194
(dp195
g14
F105460.0
sg15
F-11.7045
sg16
F1327.87
sg17
F-237.87039999999996
sg18
F-4.1607
sg19
I9
sg20
F27417.0
sbaI1003
aI2212
asI10
(lp196
(iparticle_structures
DetectorHit
p197
(dp198
g14
F105459.0
sg15
F-9.9991
sg16
F1339.01
sg17
F-223.67039999999997
sg18
F-4.2636
sg19
I10
sg20
F28536.2
sbaI1003
aI2212
asI11
(lp199
(iparticle_structures
DetectorHit
p200
(dp201
g14
F105459.0
sg15
F-10.0745
sg16
F1339.04
sg17
F-179.54739999999993
sg18
F-4.58588
sg19
I11
sg20
F32011.4
sbaI1003
aI2212
asI13
(lp202
(iparticle_structures
DetectorHit
p203
(dp204
g14
F105458.0
sg15
F-10.2398
sg16
F1336.6
sg17
F-125.77639999999997
sg18
F-4.99011
sg19
I13
sg20
F36250.5
sbaI1003
aI2212
asI14
(lp205
(iparticle_structures
DetectorHit
p206
(dp207
g14
F105458.0
sg15
F-8.34411
sg16
F1335.6
sg17
F-113.12839999999994
sg18
F-5.08307
sg19
I14
sg20
F37248.3
sbaI1003
aI2212
asI15
(lp208
(iparticle_structures
DetectorHit
p209
(dp210
g14
F105458.0
sg15
F-8.8509
sg16
F1335.6
sg17
F-100.00639999999999
sg18
F-5.16708
sg19
I15
sg20
F38284.3
sbaI1003
aI2212
asI16
(lp211
(iparticle_structures
DetectorHit
p212
(dp213
g14
F105458.0
sg15
F-22.8947
sg16
F1334.46
sg17
F-57.56039999999996
sg18
F-5.55848
sg19
I16
sg20
F41636.6
sbaI1003
aI2212
asI17
(lp214
(iparticle_structures
DetectorHit
p215
(dp216
g14
F105460.0
sg15
F-35.5638
sg16
F1112.07
sg17
F-16.92439999999999
sg18
F-6.60524
sg19
I17
sg20
F44989.1
sbaI1003
aI2212
asI18
(lp217
(iparticle_structures
DetectorHit
p218
(dp219
g14
F105460.0
sg15
F7.04215
sg16
F1086.91
sg17
F15.423600000000079
sg18
F-7.40509
sg19
I18
sg20
F48341.7
sbaI1003
aI2212
asI19
(lp220
(iparticle_structures
DetectorHit
p221
(dp222
g14
F105461.0
sg15
F47.1768
sg16
F1013.36
sg17
F51.72760000000005
sg18
F-6.22373
sg19
I19
sg20
F51694.0
sbaI1003
aI2212
asI20
(lp223
(iparticle_structures
DetectorHit
p224
(dp225
g14
F105461.0
sg15
F76.8564
sg16
F769.414
sg17
F123.28660000000002
sg18
F-0.00342599
sg19
I20
sg20
F60999.5
sbaI1003
aI2212
asI21
(lp226
(iparticle_structures
DetectorHit
p227
(dp228
g14
F104343.0
sg15
F47.2891
sg16
F624.403
sg17
F477.00559999999996
sg18
F45.4126
sg19
I21
sg20
F107602.0
sbaI1003
aI2212
asI22
(lp229
(iparticle_structures
DetectorHit
p230
(dp231
g14
F104342.0
sg15
F47.4252
sg16
F624.186
sg17
F488.5856000000001
sg18
F46.2888
sg19
I22
sg20
F109537.0
sbaI1003
aI2212
asI23
(lp232
(iparticle_structures
DetectorHit
p233
(dp234
g14
F104342.0
sg15
F46.7366
sg16
F624.201
sg17
F497.01559999999995
sg18
F46.922
sg19
I23
sg20
F110947.0
sbaI1003
aI2212
assg60
(dp235
I26
(iparticle_structures
DetectorHit
p236
(dp237
g14
F103719.0
sg15
F237.593
sg16
F805.549
sg17
F586.6956
sg18
F72.4172
sg19
I26
sg20
F122582.0
sbssg64
I26
sg65
I1003
sg66
I2212
sbs(iparticle_structures
ParticleID
p238
(dp239
g3
I13195553
sg4
I1007
sb(iparticle_structures
ParticleFlow
p240
(dp241
g3
I13195553
sg7
(dp242
sg4
I1007
sg9
(dp243
sg60
(dp244
I25
(iparticle_structures
DetectorHit
p245
(dp246
g14
F95339.0
sg15
F-809.864
sg16
F496.907
sg17
F442.3456000000001
sg18
F-472.253
sg19
I25
sg20
F118117.0
sbsI26
(iparticle_structures
DetectorHit
p247
(dp248
g14
F95337.4
sg15
F-808.607
sg16
F495.447
sg17
F465.56560000000013
sg18
F-510.172
sg19
I26
sg20
F122582.0
sbssg64
I25
sg65
I1003
sg66
I2212
sbs(iparticle_structures
ParticleID
p249
(dp250
g3
I29439427
sg4
I1008
sb(iparticle_structures
ParticleFlow
p251
(dp252
g3
I29439427
sg7
(dp253
sg4
I1008
sg9
(dp254
sg60
(dp255
I19
(iparticle_structures
DetectorHit
p256
(dp257
g14
F94395.1
sg15
F-7.94552
sg16
F843.404
sg17
F47.77260000000001
sg18
F0.519155
sg19
I19
sg20
F51694.0
sbsI20
(iparticle_structures
DetectorHit
p258
(dp259
g14
F94395.5
sg15
F-9.65866
sg16
F533.459
sg17
F106.64160000000004
sg18
F-0.377733
sg19
I20
sg20
F60999.5
sbsI21
(iparticle_structures
DetectorHit
p260
(dp261
g14
F94119.4
sg15
F-17.9876
sg16
F621.596
sg17
F405.65560000000005
sg18
F-8.9749
sg19
I21
sg20
F107602.0
sbsI22
(iparticle_structures
DetectorHit
p262
(dp263
g14
F94119.0
sg15
F-17.861
sg16
F622.194
sg17
F418.4456
sg18
F-9.34122
sg19
I22
sg20
F109537.0
sbsI23
(iparticle_structures
DetectorHit
p264
(dp265
g14
F94118.7
sg15
F-17.5491
sg16
F622.193
sg17
F427.76559999999995
sg18
F-9.60674
sg19
I23
sg20
F110947.0
sbsI24
(iparticle_structures
DetectorHit
p266
(dp267
g14
F93680.7
sg15
F-138.381
sg16
F920.82
sg17
F467.02559999999994
sg18
F-14.8221
sg19
I24
sg20
F115337.0
sbsI25
(iparticle_structures
DetectorHit
p268
(dp269
g14
F93679.9
sg15
F-138.301
sg16
F919.82
sg17
F494.3456000000001
sg18
F-18.9252
sg19
I25
sg20
F118117.0
sbsI26
(iparticle_structures
DetectorHit
p270
(dp271
g14
F93679.0
sg15
F-139.706
sg16
F919.195
sg17
F538.1956
sg18
F-25.5608
sg19
I26
sg20
F122582.0
sbssg64
I19
sg65
I1
sg66
I2212
sbs(iparticle_structures
ParticleID
p272
(dp273
g3
I11044970
sg4
I1013
sb(iparticle_structures
ParticleFlow
p274
(dp275
g3
I11044970
sg7
(dp276
sg4
I1013
sg9
(dp277
sg60
(dp278
I26
(iparticle_structures
DetectorHit
p279
(dp280
g14
F96720.7
sg15
F17.5236
sg16
F327.823
sg17
F367.3756000000001
sg18
F-94.2606
sg19
I26
sg20
F122582.0
sbssg64
I26
sg65
I1012
sg66
I2212
sbs(iparticle_structures
ParticleID
p281
(dp282
g3
I24127509
sg4
I1007
sb(iparticle_structures
ParticleFlow
p283
(dp284
g3
I24127509
sg7
(dp285
sg4
I1007
sg9
(dp286
I21
(lp287
(iparticle_structures
DetectorHit
p288
(dp289
g14
F106737.0
sg15
F-123.973
sg16
F653.292
sg17
F392.66560000000004
sg18
F-43.5285
sg19
I21
sg20
F107602.0
sbaI1003
aI2212
asI22
(lp290
(iparticle_structures
DetectorHit
p291
(dp292
g14
F106736.0
sg15
F-122.809
sg16
F655.609
sg17
F404.53559999999993
sg18
F-45.7534
sg19
I22
sg20
F109537.0
sbaI1003
aI2212
asI23
(lp293
(iparticle_structures
DetectorHit
p294
(dp295
g14
F106736.0
sg15
F-122.586
sg16
F654.856
sg17
F413.1956
sg18
F-47.377
sg19
I23
sg20
F110947.0
sbaI1003
aI2212
assg60
(dp296
I26
(iparticle_structures
DetectorHit
p297
(dp298
g14
F94528.1
sg15
F155.477
sg16
F358.23
sg17
F459.63560000000007
sg18
F-31.0792
sg19
I26
sg20
F122582.0
sbssg64
I26
sg65
I1003
sg66
I2212
sbs(iparticle_structures
ParticleID
p299
(dp300
g3
I19608515
sg4
I1008
sb(iparticle_structures
ParticleFlow
p301
(dp302
g3
I19608515
sg7
(dp303
sg4
I1008
sg9
(dp304
I6
(lp305
(iparticle_structures
DetectorHit
p306
(dp307
g14
F93969.0
sg15
F-43.9776
sg16
F1228.54
sg17
F-298.0204
sg18
F-4.28303
sg19
I6
sg20
F21786.8
sbaI1007
aI2212
asI7
(lp308
(iparticle_structures
DetectorHit
p309
(dp310
g14
F93970.6
sg15
F-44.0004
sg16
F1093.97
sg17
F-283.1984
sg18
F-4.85111
sg19
I7
sg20
F22997.6
sbaI1007
aI2212
asI8
(lp311
(iparticle_structures
DetectorHit
p312
(dp313
g14
F93970.1
sg15
F-23.7262
sg16
F1129.39
sg17
F-243.86539999999997
sg18
F-6.24138
sg19
I8
sg20
F26350.0
sbaI1007
aI2212
asI9
(lp314
(iparticle_structures
DetectorHit
p315
(dp316
g14
F93969.7
sg15
F-9.43957
sg16
F1151.25
sg17
F-230.9174
sg18
F-6.43348
sg19
I9
sg20
F27416.9
sbaI1007
aI2212
asI10
(lp317
(iparticle_structures
DetectorHit
p318
(dp319
g14
F93969.3
sg15
F-5.73262
sg16
F1158.67
sg17
F-217.13439999999997
sg18
F-6.50647
sg19
I10
sg20
F28536.2
sbaI1007
aI2212
asI11
(lp320
(iparticle_structures
DetectorHit
p321
(dp322
g14
F93968.7
sg15
F-4.40298
sg16
F1159.46
sg17
F-174.26739999999995
sg18
F-6.69052
sg19
I11
sg20
F32011.3
sbaI1007
aI2212
asI13
(lp323
(iparticle_structures
DetectorHit
p324
(dp325
g14
F93968.0
sg15
F-7.08019
sg16
F1159.27
sg17
F-121.95640000000003
sg18
F-6.94237
sg19
I13
sg20
F36250.4
sbaI1007
aI2212
asI14
(lp326
(iparticle_structures
DetectorHit
p327
(dp328
g14
F93967.8
sg15
F-6.95268
sg16
F1159.44
sg17
F-109.6454
sg18
F-7.01758
sg19
I14
sg20
F37248.2
sbaI1007
aI2212
asI15
(lp329
(iparticle_structures
DetectorHit
p330
(dp331
g14
F93967.6
sg15
F-6.52231
sg16
F1159.59
sg17
F-96.86239999999998
sg18
F-7.09162
sg19
I15
sg20
F38284.2
sbaI1007
aI2212
asI16
(lp332
(iparticle_structures
DetectorHit
p333
(dp334
g14
F93967.6
sg15
F-25.6635
sg16
F1154.62
sg17
F-55.53539999999998
sg18
F-7.48913
sg19
I16
sg20
F41636.6
sbaI1007
aI2212
asI17
(lp335
(iparticle_structures
DetectorHit
p336
(dp337
g14
F93970.0
sg15
F-43.3124
sg16
F927.373
sg17
F-16.46339999999998
sg18
F-8.89877
sg19
I17
sg20
F44989.1
sbaI1007
aI2212
asI18
(lp338
(iparticle_structures
DetectorHit
p339
(dp340
g14
F93970.3
sg15
F13.2254
sg16
F888.516
sg17
F13.129599999999982
sg18
F-9.95801
sg19
I18
sg20
F48341.7
sbaI1007
aI2212
asI19
(lp341
(iparticle_structures
DetectorHit
p342
(dp343
g14
F93971.1
sg15
F62.597
sg16
F791.438
sg17
F46.25560000000007
sg18
F-8.08926
sg19
I19
sg20
F51694.0
sbaI1007
aI2212
asI20
(lp344
(iparticle_structures
DetectorHit
p345
(dp346
g14
F93971.4
sg15
F102.798
sg16
F449.974
sg17
F98.10260000000005
sg18
F0.75007
sg19
I20
sg20
F60999.5
sbaI1007
aI2212
asI21
(lp347
(iparticle_structures
DetectorHit
p348
(dp349
g14
F93700.7
sg15
F136.652
sg16
F376.676
sg17
F294.0956
sg18
F63.532
sg19
I21
sg20
F107602.0
sbaI1007
aI2212
asI22
(lp350
(iparticle_structures
DetectorHit
p351
(dp352
g14
F93700.1
sg15
F136.672
sg16
F376.45
sg17
F301.88560000000007
sg18
F66.3403
sg19
I22
sg20
F109537.0
sbaI1007
aI2212
asI23
(lp353
(iparticle_structures
DetectorHit
p354
(dp355
g14
F93699.8
sg15
F136.917
sg16
F376.504
sg17
F307.5455999999999
sg18
F68.3957
sg19
I23
sg20
F110947.0
sbaI1007
aI2212
assg60
(dp356
I24
(iparticle_structures
DetectorHit
p357
(dp358
g14
F92038.5
sg15
F-512.901
sg16
F-14.6639
sg17
F310.03559999999993
sg18
F49.9994
sg19
I24
sg20
F115337.0
sbsI25
(iparticle_structures
DetectorHit
p359
(dp360
g14
F92037.5
sg15
F-511.343
sg16
F-14.5707
sg17
F309.5756000000001
sg18
F34.5268
sg19
I25
sg20
F118117.0
sbsI26
(iparticle_structures
DetectorHit
p361
(dp362
g14
F92036.3
sg15
F-511.377
sg16
F-13.3602
sg17
F308.88560000000007
sg18
F9.7154
sg19
I26
sg20
F122582.0
sbssg64
I24
sg65
I1007
sg66
I2212
sbs(iparticle_structures
ParticleID
p363
(dp364
g3
I27048696
sg4
I1003
sb(iparticle_structures
ParticleFlow
p365
(dp366
g3
I27048696
sg7
(dp367
sg4
I1003
sg9
(dp368
I1
(lp369
(iparticle_structures
DetectorHit
p370
(dp371
g14
F104794.0
sg15
F29.6562
sg16
F2124.64
sg17
F-632.8781
sg18
F0.00679549
sg19
I1
sg20
F4708.96
sbaI1002
aI2212
asI6
(lp372
(iparticle_structures
DetectorHit
p373
(dp374
g14
F104807.0
sg15
F78.7893
sg16
F1333.18
sg17
F-306.37539999999996
sg18
F5.90227
sg19
I6
sg20
F21786.9
sbaI1002
aI2212
assg60
(dp375
I26
(iparticle_structures
DetectorHit
p376
(dp377
g14
F103528.0
sg15
F-221.869
sg16
F489.026
sg17
F492.6256000000001
sg18
F-94.2103
sg19
I26
sg20
F122582.0
sbssg64
I26
sg65
I1002
sg66
I2212
sbs(iparticle_structures
ParticleID
p378
(dp379
g3
I33018548
sg4
I1006
sb(iparticle_structures
ParticleFlow
p380
(dp381
g3
I33018548
sg7
(dp382
sg4
I1006
sg9
(dp383
sg60
(dp384
I26
(iparticle_structures
DetectorHit
p385
(dp386
g14
F108928.0
sg15
F219.318
sg16
F-36.695
sg17
F428.8356000000001
sg18
F71.0228
sg19
I26
sg20
F122582.0
sbssg64
I26
sg65
I1005
sg66
I2212
sbs(iparticle_structures
ParticleID
p387
(dp388
g3
I7599360
sg4
I1007
sb(iparticle_structures
ParticleFlow
p389
(dp390
g3
I7599360
sg7
(dp391
sg4
I1007
sg9
(dp392
sg60
(dp393
I6
(iparticle_structures
DetectorHit
p394
(dp395
g14
F100143.0
sg15
F-23.7849
sg16
F1226.59
sg17
F-306.9774
sg18
F-1.75125
sg19
I6
sg20
F21786.9
sbsI7
(iparticle_structures
DetectorHit
p396
(dp397
g14
F100009.0
sg15
F-42.7329
sg16
F1170.13
sg17
F-292.30039999999997
sg18
F-2.24829
sg19
I7
sg20
F22997.7
sbsI8
(iparticle_structures
DetectorHit
p398
(dp399
g14
F100008.0
sg15
F-31.427
sg16
F1235.57
sg17
F-252.5304
sg18
F-3.58331
sg19
I8
sg20
F26350.2
sbsI9
(iparticle_structures
DetectorHit
p400
(dp401
g14
F100008.0
sg15
F-22.9606
sg16
F1275.69
sg17
F-239.1334
sg18
F-3.87482
sg19
I9
sg20
F27417.0
sbsI10
(iparticle_structures
DetectorHit
p402
(dp403
g14
F100007.0
sg15
F-20.0681
sg16
F1288.2
sg17
F-224.73739999999998
sg18
F-4.10375
sg19
I10
sg20
F28536.3
sbsI11
(iparticle_structures
DetectorHit
p404
(dp405
g14
F100007.0
sg15
F-18.4753
sg16
F1288.06
sg17
F-179.9764
sg18
F-4.78168
sg19
I11
sg20
F32011.4
sbsI13
(iparticle_structures
DetectorHit
p406
(dp407
g14
F100006.0
sg15
F-18.4763
sg16
F1289.54
sg17
F-125.3324
sg18
F-5.56982
sg19
I13
sg20
F36250.5
sbsI14
(iparticle_structures
DetectorHit
p408
(dp409
g14
F100006.0
sg15
F-18.7201
sg16
F1289.48
sg17
F-112.4674
sg18
F-5.75332
sg19
I14
sg20
F37248.2
sbsI15
(iparticle_structures
DetectorHit
p410
(dp411
g14
F100006.0
sg15
F-17.8758
sg16
F1290.24
sg17
F-99.10640000000001
sg18
F-5.9462
sg19
I15
sg20
F38284.2
sbsI16
(iparticle_structures
DetectorHit
p412
(dp413
g14
F100005.0
sg15
F-34.8017
sg16
F1286.91
sg17
F-55.88839999999993
sg18
F-6.6788
sg19
I16
sg20
F41636.6
sbsI17
(iparticle_structures
DetectorHit
p414
(dp415
g14
F100008.0
sg15
F-50.004
sg16
F1060.74
sg17
F-14.735400000000027
sg18
F-8.26148
sg19
I17
sg20
F44989.1
sbsI18
(iparticle_structures
DetectorHit
p416
(dp417
g14
F100008.0
sg15
F5.60905
sg16
F1043.28
sg17
F17.712600000000066
sg18
F-9.47974
sg19
I18
sg20
F48341.6
sbsI19
(iparticle_structures
DetectorHit
p418
(dp419
g14
F100009.0
sg15
F61.8885
sg16
F980.895
sg17
F54.74260000000004
sg18
F-7.94535
sg19
I19
sg20
F51693.9
sbsI20
(iparticle_structures
DetectorHit
p420
(dp421
g14
F100009.0
sg15
F101.034
sg16
F762.213
sg17
F129.05759999999998
sg18
F0.686217
sg19
I20
sg20
F60999.5
sbsI21
(iparticle_structures
DetectorHit
p422
(dp423
g14
F99679.4
sg15
F84.7479
sg16
F679.711
sg17
F449.74559999999997
sg18
F41.1226
sg19
I21
sg20
F107602.0
sbsI22
(iparticle_structures
DetectorHit
p424
(dp425
g14
F99679.0
sg15
F84.9264
sg16
F679.815
sg17
F462.9456
sg18
F42.766
sg19
I22
sg20
F109537.0
sbsI23
(iparticle_structures
DetectorHit
p426
(dp427
g14
F99678.6
sg15
F83.9082
sg16
F680.269
sg17
F472.56560000000013
sg18
F43.9637
sg19
I23
sg20
F110947.0
sbsI24
(iparticle_structures
DetectorHit
p428
(dp429
g14
F99257.9
sg15
F15.9787
sg16
F612.749
sg17
F500.31560000000013
sg18
F45.2674
sg19
I24
sg20
F115337.0
sbsI25
(iparticle_structures
DetectorHit
p430
(dp431
g14
F99257.0
sg15
F16.5121
sg16
F612.799
sg17
F517.4856
sg18
F45.7196
sg19
I25
sg20
F118117.0
sbsI26
(iparticle_structures
DetectorHit
p432
(dp433
g14
F99256.0
sg15
F17.1019
sg16
F613.309
sg17
F545.0856000000001
sg18
F46.4714
sg19
I26
sg20
F122582.0
sbssg64
I6
sg65
I1
sg66
I2212
sbs(iparticle_structures
ParticleID
p434
(dp435
g3
I28489463
sg4
I1003
sb(iparticle_structures
ParticleFlow
p436
(dp437
g3
I28489463
sg7
(dp438
sg4
I1003
sg9
(dp439
I6
(lp440
(iparticle_structures
DetectorHit
p441
(dp442
g14
F99202.4
sg15
F-69.3517
sg16
F1283.66
sg17
F-301.3864
sg18
F-5.63668
sg19
I6
sg20
F21786.8
sbaI1002
aI2212
asI7
(lp443
(iparticle_structures
DetectorHit
p444
(dp445
g14
F99204.0
sg15
F-69.8225
sg16
F1149.12
sg17
F-286.6714
sg18
F-6.48474
sg19
I7
sg20
F22997.6
sbaI1002
aI2212
asI8
(lp446
(iparticle_structures
DetectorHit
p447
(dp448
g14
F99203.4
sg15
F-42.6257
sg16
F1196.59
sg17
F-247.44039999999995
sg18
F-8.61567
sg19
I8
sg20
F26350.1
sbaI1002
aI2212
asI9
(lp449
(iparticle_structures
DetectorHit
p450
(dp451
g14
F99202.7
sg15
F-24.1995
sg16
F1225.89
sg17
F-234.4124
sg18
F-8.97281
sg19
I9
sg20
F27416.9
sbaI1002
aI2212
asI10
(lp452
(iparticle_structures
DetectorHit
p453
(dp454
g14
F99202.3
sg15
F-18.423
sg16
F1235.74
sg17
F-220.49039999999997
sg18
F-9.18665
sg19
I10
sg20
F28536.2
sbaI1002
aI2212
asI11
(lp455
(iparticle_structures
DetectorHit
p456
(dp457
g14
F99201.7
sg15
F-18.9592
sg16
F1235.36
sg17
F-177.20039999999995
sg18
F-9.83379
sg19
I11
sg20
F32011.3
sbaI1002
aI2212
asI13
(lp458
(iparticle_structures
DetectorHit
p459
(dp460
g14
F99201.0
sg15
F-18.3685
sg16
F1233.63
sg17
F-124.44539999999995
sg18
F-10.5985
sg19
I13
sg20
F36250.4
sbaI1002
aI2212
asI14
(lp461
(iparticle_structures
DetectorHit
p462
(dp463
g14
F99200.8
sg15
F-18.2959
sg16
F1232.51
sg17
F-112.04139999999995
sg18
F-10.7833
sg19
I14
sg20
F37248.2
sbaI1002
aI2212
asI15
(lp464
(iparticle_structures
DetectorHit
p465
(dp466
g14
F99200.4
sg15
F-17.8862
sg16
F1233.28
sg17
F-99.16239999999993
sg18
F-10.971
sg19
I15
sg20
F38284.2
sbaI1002
aI2212
asI16
(lp467
(iparticle_structures
DetectorHit
p468
(dp469
g14
F99200.3
sg15
F-48.5626
sg16
F1232.34
sg17
F-57.49540000000002
sg18
F-11.8337
sg19
I16
sg20
F41636.6
sbaI1002
aI2212
asI17
(lp470
(iparticle_structures
DetectorHit
p471
(dp472
g14
F99202.8
sg15
F-76.437
sg16
F1006.44
sg17
F-17.776399999999967
sg18
F-14.2136
sg19
I17
sg20
F44989.1
sbaI1002
aI2212
asI18
(lp473
(iparticle_structures
DetectorHit
p474
(dp475
g14
F99203.3
sg15
F14.3043
sg16
F953.258
sg17
F12.769599999999969
sg18
F-16.0557
sg19
I18
sg20
F48341.7
sbaI1002
aI2212
asI19
(lp476
(iparticle_structures
DetectorHit
p477
(dp478
g14
F99204.2
sg15
F94.3264
sg16
F842.561
sg17
F46.02060000000006
sg18
F-13.4284
sg19
I19
sg20
F51694.0
sbaI1002
aI2212
asI20
(lp479
(iparticle_structures
DetectorHit
p480
(dp481
g14
F99205.1
sg15
F157.564
sg16
F492.633
sg17
F99.5086
sg18
F-0.469865
sg19
I20
sg20
F60999.5
sbaI1002
aI2212
asI21
(lp482
(iparticle_structures
DetectorHit
p483
(dp484
g14
F98938.6
sg15
F114.058
sg16
F450.871
sg17
F316.0455999999999
sg18
F58.2441
sg19
I21
sg20
F107602.0
sbaI1002
aI2212
assg60
(dp485
I26
(iparticle_structures
DetectorHit
p486
(dp487
g14
F96619.7
sg15
F61.9475
sg16
F510.385
sg17
F392.4356
sg18
F70.2064
sg19
I26
sg20
F122582.0
sbssg64
I26
sg65
I1002
sg66
I2212
sbs(iparticle_structures
ParticleID
p488
(dp489
g3
I12336809
sg4
I1001
sb(iparticle_structures
ParticleFlow
p490
(dp491
g3
I12336809
sg7
(dp492
sg4
I1001
sg9
(dp493
sg60
(dp494
I6
(iparticle_structures
DetectorHit
p495
(dp496
g14
F91388.2
sg15
F8.32229
sg16
F1238.59
sg17
F-292.55339999999995
sg18
F0.553532
sg19
I6
sg20
F21786.7
sbsI7
(iparticle_structures
DetectorHit
p497
(dp498
g14
F91389.8
sg15
F8.45925
sg16
F1104.95
sg17
F-277.17339999999996
sg18
F0.66409
sg19
I7
sg20
F22997.5
sbsI8
(iparticle_structures
DetectorHit
p499
(dp500
g14
F91389.6
sg15
F5.55743
sg16
F1116.59
sg17
F-236.5394
sg18
F0.95037
sg19
I8
sg20
F26349.9
sbsI9
(iparticle_structures
DetectorHit
p501
(dp502
g14
F91389.4
sg15
F3.42919
sg16
F1122.4
sg17
F-223.46839999999997
sg18
F1.00276
sg19
I9
sg20
F27416.8
sbsI10
(iparticle_structures
DetectorHit
p503
(dp504
g14
F91389.1
sg15
F1.62589
sg16
F1123.58
sg17
F-209.70939999999996
sg18
F1.02971
sg19
I10
sg20
F28536.1
sbsI11
(iparticle_structures
DetectorHit
p505
(dp506
g14
F91388.5
sg15
F2.93347
sg16
F1123.62
sg17
F-166.97939999999994
sg18
F1.10913
sg19
I11
sg20
F32011.2
sbsI13
(iparticle_structures
DetectorHit
p507
(dp508
g14
F91323.2
sg15
F14.6236
sg16
F1127.58
sg17
F-114.77239999999995
sg18
F1.41913
sg19
I13
sg20
F36250.3
sbsI14
(iparticle_structures
DetectorHit
p509
(dp510
g14
F91322.7
sg15
F13.9062
sg16
F1128.5
sg17
F-102.45039999999995
sg18
F1.57726
sg19
I14
sg20
F37248.1
sbsI15
(iparticle_structures
DetectorHit
p511
(dp512
g14
F91322.5
sg15
F13.6618
sg16
F1128.64
sg17
F-89.65139999999997
sg18
F1.7364
sg19
I15
sg20
F38284.1
sbsI16
(iparticle_structures
DetectorHit
p513
(dp514
g14
F91322.8
sg15
F19.5815
sg16
F1104.32
sg17
F-48.4384
sg18
F2.28667
sg19
I16
sg20
F41636.5
sbsI17
(iparticle_structures
DetectorHit
p515
(dp516
g14
F91325.3
sg15
F25.414
sg16
F864.632
sg17
F-10.506399999999985
sg18
F3.17389
sg19
I17
sg20
F44989.0
sbsI18
(iparticle_structures
DetectorHit
p517
(dp518
g14
F91325.2
sg15
F2.71998
sg16
F866.448
sg17
F18.04359999999997
sg18
F3.89915
sg19
I18
sg20
F48341.6
sbsI19
(iparticle_structures
DetectorHit
p519
(dp520
g14
F91325.6
sg15
F-15.8719
sg16
F812.995
sg17
F52.40260000000001
sg18
F3.413
sg19
I19
sg20
F51693.9
sbsI20
(iparticle_structures
DetectorHit
p521
(dp522
g14
F91326.1
sg15
F-27.1943
sg16
F550.906
sg17
F113.45960000000002
sg18
F1.24874
sg19
I20
sg20
F60999.5
sbsI26
(iparticle_structures
DetectorHit
p523
(dp524
g14
F90764.7
sg15
F70.2036
sg16
F475.805
sg17
F496.76559999999995
sg18
F11.7165
sg19
I26
sg20
F122582.0
sbssg64
I6
sg65
I1
sg66
I2212
sbs(iparticle_structures
ParticleID
p525
(dp526
g3
I32566412
sg4
I1005
sb(iparticle_structures
ParticleFlow
p527
(dp528
g3
I32566412
sg7
(dp529
sg4
I1005
sg9
(dp530
I22
(lp531
(iparticle_structures
DetectorHit
p532
(dp533
g14
F102623.0
sg15
F-95.1867
sg16
F759.001
sg17
F356.0856000000001
sg18
F-42.6815
sg19
I22
sg20
F109537.0
sbaI1004
aI2212
asI23
(lp534
(iparticle_structures
DetectorHit
p535
(dp536
g14
F102623.0
sg15
F-96.3342
sg16
F759.383
sg17
F366.50559999999996
sg18
F-43.9944
sg19
I23
sg20
F110947.0
sbaI1004
aI2212
assg60
(dp537
I24
(iparticle_structures
DetectorHit
p538
(dp539
g14
F97304.1
sg15
F253.186
sg16
F744.133
sg17
F399.7156
sg18
F-35.7938
sg19
I24
sg20
F115337.0
sbsI25
(iparticle_structures
DetectorHit
p540
(dp541
g14
F97303.5
sg15
F253.439
sg16
F745.162
sg17
F420.9756
sg18
F-28.5513
sg19
I25
sg20
F118117.0
sbsI26
(iparticle_structures
DetectorHit
p542
(dp543
g14
F97302.5
sg15
F251.503
sg16
F742.913
sg17
F455.14560000000006
sg18
F-16.9841
sg19
I26
sg20
F122582.0
sbssg64
I24
sg65
I1004
sg66
I2212
sbs(iparticle_structures
ParticleID
p544
(dp545
g3
I8724136
sg4
I1010
sb(iparticle_structures
ParticleFlow
p546
(dp547
g3
I8724136
sg7
(dp548
sg4
I1010
sg9
(dp549
sg60
(dp550
I1
(iparticle_structures
DetectorHit
p551
(dp552
g14
F92121.1
sg15
F10.3688
sg16
F1932.13
sg17
F-628.4408999999999
sg18
F1.31315
sg19
I1
sg20
F4708.86
sbsI6
(iparticle_structures
DetectorHit
p553
(dp554
g14
F92132.6
sg15
F28.3603
sg16
F1256.98
sg17
F-292.44539999999995
sg18
F2.88876
sg19
I6
sg20
F21786.7
sbsI7
(iparticle_structures
DetectorHit
p555
(dp556
g14
F92134.3
sg15
F28.2653
sg16
F1122.39
sg17
F-276.9534
sg18
F3.25989
sg19
I7
sg20
F22997.5
sbsI8
(iparticle_structures
DetectorHit
p557
(dp558
g14
F92134.0
sg15
F14.9332
sg16
F1132.53
sg17
F-236.0324
sg18
F4.16917
sg19
I8
sg20
F26349.9
sbsI9
(iparticle_structures
DetectorHit
p559
(dp560
g14
F92133.7
sg15
F6.45727
sg16
F1136.15
sg17
F-222.89339999999999
sg18
F4.29247
sg19
I9
sg20
F27416.8
sbsI10
(iparticle_structures
DetectorHit
p561
(dp562
g14
F92133.3
sg15
F3.24162
sg16
F1137.96
sg17
F-209.0734
sg18
F4.33909
sg19
I10
sg20
F28536.1
sbsI11
(iparticle_structures
DetectorHit
p563
(dp564
g14
F92131.3
sg15
F3.3606
sg16
F1136.77
sg17
F-166.20139999999992
sg18
F4.46947
sg19
I11
sg20
F32011.2
sbsI13
(iparticle_structures
DetectorHit
p565
(dp566
g14
F92074.3
sg15
F5.95993
sg16
F1139.41
sg17
F-113.8614
sg18
F4.65386
sg19
I13
sg20
F36250.3
sbsI14
(iparticle_structures
DetectorHit
p567
(dp568
g14
F92074.0
sg15
F6.79579
sg16
F1139.19
sg17
F-101.51440000000002
sg18
F4.72273
sg19
I14
sg20
F37248.1
sbsI15
(iparticle_structures
DetectorHit
p569
(dp570
g14
F92073.8
sg15
F6.80776
sg16
F1139.67
sg17
F-88.69539999999995
sg18
F4.80012
sg19
I15
sg20
F38284.1
sbsI16
(iparticle_structures
DetectorHit
p571
(dp572
g14
F92074.1
sg15
F20.431
sg16
F1113.16
sg17
F-47.437400000000025
sg18
F5.17161
sg19
I16
sg20
F41636.5
sbsI17
(iparticle_structures
DetectorHit
p573
(dp574
g14
F92076.7
sg15
F32.1977
sg16
F870.726
sg17
F-9.559399999999982
sg18
F6.25093
sg19
I17
sg20
F44989.0
sbsI18
(iparticle_structures
DetectorHit
p575
(dp576
g14
F92076.6
sg15
F-9.84619
sg16
F871.236
sg17
F18.968600000000038
sg18
F7.04893
sg19
I18
sg20
F48341.6
sbsI19
(iparticle_structures
DetectorHit
p577
(dp578
g14
F92077.0
sg15
F-42.9506
sg16
F815.736
sg17
F53.15859999999998
sg18
F5.63856
sg19
I19
sg20
F51693.9
sbsI26
(iparticle_structures
DetectorHit
p579
(dp580
g14
F91448.6
sg15
F-217.604
sg16
F681.991
sg17
F523.4156
sg18
F-49.4037
sg19
I26
sg20
F122582.0
sbssg64
I1
sg65
I1
sg66
I2212
sbs(iparticle_structures
ParticleID
p581
(dp582
g3
I10979380
sg4
I1007
sb(iparticle_structures
ParticleFlow
p583
(dp584
g3
I10979380
sg7
(dp585
sg4
I1007
sg9
(dp586
sg60
(dp587
I26
(iparticle_structures
DetectorHit
p588
(dp589
g14
F100941.0
sg15
F-365.339
sg16
F756.402
sg17
F528.5156
sg18
F-223.581
sg19
I26
sg20
F122582.0
sbssg64
I26
sg65
I1006
sg66
I2212
sbs(iparticle_structures
ParticleID
p590
(dp591
g3
I28426051
sg4
I1002
sb(iparticle_structures
ParticleFlow
p592
(dp593
g3
I28426051
sg7
(dp594
sg4
I1002
sg9
(dp595
sg60
(dp596
I7
(iparticle_structures
DetectorHit
p597
(dp598
g14
F118039.0
sg15
F13.4215
sg16
F1184.5
sg17
F-242.0154
sg18
F-0.323036
sg19
I7
sg20
F22997.1
sbsI8
(iparticle_structures
DetectorHit
p599
(dp600
g14
F118038.0
sg15
F14.0193
sg16
F1271.35
sg17
F-207.76739999999995
sg18
F0.0696193
sg19
I8
sg20
F26349.5
sbsI9
(iparticle_structures
DetectorHit
p601
(dp602
g14
F118037.0
sg15
F13.6181
sg16
F1326.35
sg17
F-196.0254
sg18
F0.194921
sg19
I9
sg20
F27416.3
sbsI10
(iparticle_structures
DetectorHit
p603
(dp604
g14
F118036.0
sg15
F13.4825
sg16
F1345.48
sg17
F-183.29639999999995
sg18
F0.322555
sg19
I10
sg20
F28535.8
sbsI11
(iparticle_structures
DetectorHit
p605
(dp606
g14
F118035.0
sg15
F14.8898
sg16
F1347.27
sg17
F-143.66039999999998
sg18
F0.734685
sg19
I11
sg20
F32010.9
sbsI13
(iparticle_structures
DetectorHit
p607
(dp608
g14
F117628.0
sg15
F63.8765
sg16
F1293.8
sg17
F-96.04539999999997
sg18
F2.08184
sg19
I13
sg20
F36250.0
sbsI14
(iparticle_structures
DetectorHit
p609
(dp610
g14
F117628.0
sg15
F64.4724
sg16
F1292.93
sg17
F-85.07439999999997
sg18
F2.62606
sg19
I14
sg20
F37247.8
sbsI15
(iparticle_structures
DetectorHit
p611
(dp612
g14
F117627.0
sg15
F65.3178
sg16
F1291.91
sg17
F-73.6934
sg18
F3.19727
sg19
I15
sg20
F38283.8
sbsI16
(iparticle_structures
DetectorHit
p613
(dp614
g14
F117628.0
sg15
F76.7773
sg16
F1235.84
sg17
F-37.266399999999976
sg18
F5.14282
sg19
I16
sg20
F41636.3
sbsI17
(iparticle_structures
DetectorHit
p615
(dp616
g14
F117630.0
sg15
F89.5161
sg16
F974.043
sg17
F-4.5774000000000115
sg18
F7.61761
sg19
I17
sg20
F44988.9
sbsI18
(iparticle_structures
DetectorHit
p617
(dp618
g14
F117630.0
sg15
F31.765
sg16
F984.438
sg17
F20.792599999999993
sg18
F9.76839
sg19
I18
sg20
F48341.6
sbsI19
(iparticle_structures
DetectorHit
p619
(dp620
g14
F117631.0
sg15
F-18.7907
sg16
F922.192
sg17
F50.725599999999986
sg18
F9.47946
sg19
I19
sg20
F51694.0
sbsI20
(iparticle_structures
DetectorHit
p621
(dp622
g14
F117631.0
sg15
F-59.1683
sg16
F611.157
sg17
F104.12260000000003
sg18
F6.12823
sg19
I20
sg20
F60999.5
sbsI21
(iparticle_structures
DetectorHit
p623
(dp624
g14
F117360.0
sg15
F19.0092
sg16
F618.624
sg17
F349.75559999999996
sg18
F6.991
sg19
I21
sg20
F107602.0
sbsI26
(iparticle_structures
DetectorHit
p625
(dp626
g14
F116604.0
sg15
F-33.0587
sg16
F441.779
sg17
F414.15560000000005
sg18
F5.78225
sg19
I26
sg20
F122582.0
sbssg64
I7
sg65
I1001
sg66
I2212
sbs(iparticle_structures
ParticleID
p627
(dp628
g3
I3752938
sg4
I1001
sb(iparticle_structures
ParticleFlow
p629
(dp630
g3
I3752938
sg7
(dp631
sg4
I1001
sg9
(dp632
sg60
(dp633
I1
(iparticle_structures
DetectorHit
p634
(dp635
g14
F119408.0
sg15
F-4.80708
sg16
F2395.59
sg17
F-632.6772
sg18
F-0.337323
sg19
I1
sg20
F4708.96
sbsI26
(iparticle_structures
DetectorHit
p636
(dp637
g14
F118532.0
sg15
F36.6553
sg16
F860.858
sg17
F529.9356
sg18
F-15.9431
sg19
I26
sg20
F122582.0
sbsI6
(iparticle_structures
DetectorHit
p638
(dp639
g14
F119422.0
sg15
F-12.9204
sg16
F1555.37
sg17
F-308.4084
sg18
F-1.0682
sg19
I6
sg20
F21786.9
sbsI7
(iparticle_structures
DetectorHit
p640
(dp641
g14
F119104.0
sg15
F15.018
sg16
F1368.14
sg17
F-293.85639999999995
sg18
F-0.999931
sg19
I7
sg20
F22997.7
sbssg64
I1
sg65
I1
sg66
I2212
sbs(iparticle_structures
ParticleID
p642
(dp643
g3
I18040826
sg4
I1006
sb(iparticle_structures
ParticleFlow
p644
(dp645
g3
I18040826
sg7
(dp646
sg4
I1006
sg9
(dp647
sg60
(dp648
I24
(iparticle_structures
DetectorHit
p649
(dp650
g14
F100324.0
sg15
F112.101
sg16
F504.398
sg17
F474.5856000000001
sg18
F86.2358
sg19
I24
sg20
F115337.0
sbsI25
(iparticle_structures
DetectorHit
p651
(dp652
g14
F100323.0
sg15
F111.906
sg16
F504.683
sg17
F488.5555999999999
sg18
F89.3378
sg19
I25
sg20
F118117.0
sbsI26
(iparticle_structures
DetectorHit
p653
(dp654
g14
F100322.0
sg15
F112.706
sg16
F503.83
sg17
F510.99559999999997
sg18
F94.353
sg19
I26
sg20
F122582.0
sbssg64
I24
sg65
I1004
sg66
I2212
sbs(iparticle_structures
ParticleID
p655
(dp656
g3
I5068137
sg4
I1012
sb(iparticle_structures
ParticleFlow
p657
(dp658
g3
I5068137
sg7
(dp659
sg4
I1012
sg9
(dp660
I1
(lp661
(iparticle_structures
DetectorHit
p662
(dp663
g14
F92112.2
sg15
F34.1328
sg16
F1919.33
sg17
F-629.5466
sg18
F2.14234
sg19
I1
sg20
F4708.88
sbaI1011
aI2212
asI6
(lp664
(iparticle_structures
DetectorHit
p665
(dp666
g14
F92123.8
sg15
F89.3638
sg16
F1227.52
sg17
F-295.7124
sg18
F8.31593
sg19
I6
sg20
F21786.7
sbaI1011
aI2212
asI7
(lp667
(iparticle_structures
DetectorHit
p668
(dp669
g14
F92125.5
sg15
F89.3324
sg16
F1091.63
sg17
F-280.6194
sg18
F9.48909
sg19
I7
sg20
F22997.6
sbaI1011
aI2212
asI8
(lp670
(iparticle_structures
DetectorHit
p671
(dp672
g14
F92125.2
sg15
F50.5507
sg16
F1116.75
sg17
F-240.67039999999997
sg18
F12.4165
sg19
I8
sg20
F26350.0
sbaI1011
aI2212
asI9
(lp673
(iparticle_structures
DetectorHit
p674
(dp675
g14
F92124.8
sg15
F23.2477
sg16
F1131.82
sg17
F-227.6454
sg18
F12.8447
sg19
I9
sg20
F27416.8
sbaI1011
aI2212
asI10
(lp676
(iparticle_structures
DetectorHit
p677
(dp678
g14
F92124.1
sg15
F13.5897
sg16
F1135.66
sg17
F-213.85539999999997
sg18
F13.0285
sg19
I10
sg20
F28536.1
sbaI1011
aI2212
asI11
(lp679
(iparticle_structures
DetectorHit
p680
(dp681
g14
F92123.5
sg15
F13.9969
sg16
F1135.8
sg17
F-171.00739999999996
sg18
F13.5466
sg19
I11
sg20
F32011.3
sbaI1011
aI2212
asI13
(lp682
(iparticle_structures
DetectorHit
p683
(dp684
g14
F92122.8
sg15
F14.0485
sg16
F1135.85
sg17
F-118.73839999999996
sg18
F14.2149
sg19
I13
sg20
F36250.3
sbaI1011
aI2212
asI14
(lp685
(iparticle_structures
DetectorHit
p686
(dp687
g14
F92122.5
sg15
F14.0556
sg16
F1136.18
sg17
F-106.4334
sg18
F14.3705
sg19
I14
sg20
F37248.1
sbaI1011
aI2212
asI15
(lp688
(iparticle_structures
DetectorHit
p689
(dp690
g14
F92121.7
sg15
F14.6906
sg16
F1136.39
sg17
F-93.65739999999994
sg18
F14.529
sg19
I15
sg20
F38284.1
sbaI1011
aI2212
asI16
(lp691
(iparticle_structures
DetectorHit
p692
(dp693
g14
F92121.7
sg15
F53.9831
sg16
F1123.32
sg17
F-52.412399999999934
sg18
F15.405
sg19
I16
sg20
F41636.5
sbaI1011
aI2212
asI17
(lp694
(iparticle_structures
DetectorHit
p695
(dp696
g14
F92124.2
sg15
F89.4345
sg16
F887.563
sg17
F-13.894400000000019
sg18
F18.3879
sg19
I17
sg20
F44989.1
sbaI1011
aI2212
asI18
(lp697
(iparticle_structures
DetectorHit
p698
(dp699
g14
F92124.7
sg15
F-28.6256
sg16
F837.73
sg17
F14.727600000000052
sg18
F20.6015
sg19
I18
sg20
F48341.7
sbaI1011
aI2212
asI19
(lp700
(iparticle_structures
DetectorHit
p701
(dp702
g14
F92125.5
sg15
F-132.781
sg16
F723.164
sg17
F46.26260000000002
sg18
F16.5717
sg19
I19
sg20
F51694.0
sbaI1011
aI2212
asI20
(lp703
(iparticle_structures
DetectorHit
p704
(dp705
g14
F92122.9
sg15
F-192.471
sg16
F356.543
sg17
F90.84360000000004
sg18
F-0.688772
sg19
I20
sg20
F60999.5
sbaI1011
aI2212
assg60
(dp706
I21
(iparticle_structures
DetectorHit
p707
(dp708
g14
F87119.5
sg15
F-437.316
sg16
F502.075
sg17
F330.14560000000006
sg18
F-190.908
sg19
I21
sg20
F107602.0
sbsI22
(iparticle_structures
DetectorHit
p709
(dp710
g14
F87119.0
sg15
F-438.124
sg16
F502.53
sg17
F341.31560000000013
sg18
F-200.628
sg19
I22
sg20
F109537.0
sbsI23
(iparticle_structures
DetectorHit
p711
(dp712
g14
F87118.6
sg15
F-440.128
sg16
F498.192
sg17
F349.40560000000005
sg18
F-207.733
sg19
I23
sg20
F110947.0
sbsI24
(iparticle_structures
DetectorHit
p713
(dp714
g14
F85414.6
sg15
F-355.466
sg16
F462.177
sg17
F373.4556
sg18
F-226.269
sg19
I24
sg20
F115337.0
sbsI25
(iparticle_structures
DetectorHit
p715
(dp716
g14
F85413.9
sg15
F-354.464
sg16
F461.278
sg17
F388.50559999999996
sg18
F-237.819
sg19
I25
sg20
F118117.0
sbsI26
(iparticle_structures
DetectorHit
p717
(dp718
g14
F85412.8
sg15
F-354.269
sg16
F464.181
sg17
F412.7156
sg18
F-256.334
sg19
I26
sg20
F122582.0
sbssg64
I21
sg65
I1011
sg66
I2212
sbs(iparticle_structures
ParticleID
p719
(dp720
g3
I30878144
sg4
I1005
sb(iparticle_structures
ParticleFlow
p721
(dp722
g3
I30878144
sg7
(dp723
sg4
I1005
sg9
(dp724
sg60
(dp725
I1
(iparticle_structures
DetectorHit
p726
(dp727
g14
F104151.0
sg15
F-16.09
sg16
F2118.04
sg17
F-631.7564
sg18
F-0.804779
sg19
I1
sg20
F4708.93
sbsI6
(iparticle_structures
DetectorHit
p728
(dp729
g14
F104164.0
sg15
F-45.5
sg16
F1334.11
sg17
F-304.71639999999996
sg18
F-3.67329
sg19
I6
sg20
F21786.8
sbsI7
(iparticle_structures
DetectorHit
p730
(dp731
g14
F104166.0
sg15
F-45.1926
sg16
F1200.08
sg17
F-290.1144
sg18
F-4.20058
sg19
I7
sg20
F22997.7
sbsI8
(iparticle_structures
DetectorHit
p732
(dp733
g14
F104165.0
sg15
F-27.8355
sg16
F1259.47
sg17
F-251.0204
sg18
F-5.52529
sg19
I8
sg20
F26350.2
sbsI9
(iparticle_structures
DetectorHit
p734
(dp735
g14
F104164.0
sg15
F-15.5438
sg16
F1297.61
sg17
F-237.92539999999997
sg18
F-5.75096
sg19
I9
sg20
F27417.0
sbsI10
(iparticle_structures
DetectorHit
p736
(dp737
g14
F104164.0
sg15
F-11.5143
sg16
F1308.56
sg17
F-223.88039999999995
sg18
F-5.88306
sg19
I10
sg20
F28536.2
sbsI11
(iparticle_structures
DetectorHit
p738
(dp739
g14
F104163.0
sg15
F-11.7534
sg16
F1309.27
sg17
F-180.22839999999997
sg18
F-6.26375
sg19
I11
sg20
F32011.4
sbsI13
(iparticle_structures
DetectorHit
p740
(dp741
g14
F104162.0
sg15
F-11.7216
sg16
F1308.19
sg17
F-126.98040000000003
sg18
F-6.75204
sg19
I13
sg20
F36250.5
sbsI14
(iparticle_structures
DetectorHit
p742
(dp743
g14
F104162.0
sg15
F-12.2706
sg16
F1307.54
sg17
F-114.44939999999997
sg18
F-6.86475
sg19
I14
sg20
F37248.3
sbsI15
(iparticle_structures
DetectorHit
p744
(dp745
g14
F104162.0
sg15
F-12.73
sg16
F1307.18
sg17
F-101.44539999999995
sg18
F-6.98804
sg19
I15
sg20
F38284.3
sbsI16
(iparticle_structures
DetectorHit
p746
(dp747
g14
F104162.0
sg15
F-32.125
sg16
F1301.29
sg17
F-59.43240000000003
sg18
F-7.55487
sg19
I16
sg20
F41636.6
sbsI17
(iparticle_structures
DetectorHit
p748
(dp749
g14
F104164.0
sg15
F-49.6929
sg16
F1078.18
sg17
F-19.357399999999984
sg18
F-9.03252
sg19
I17
sg20
F44989.2
sbsI18
(iparticle_structures
DetectorHit
p750
(dp751
g14
F104165.0
sg15
F7.55856
sg16
F1030.05
sg17
F12.092600000000061
sg18
F-10.1781
sg19
I18
sg20
F48341.7
sbsI19
(iparticle_structures
DetectorHit
p752
(dp753
g14
F104166.0
sg15
F58.0098
sg16
F929.097
sg17
F46.43560000000002
sg18
F-8.64484
sg19
I19
sg20
F51694.0
sbsI20
(iparticle_structures
DetectorHit
p754
(dp755
g14
F104166.0
sg15
F101.648
sg16
F599.886
sg17
F106.27260000000001
sg18
F-0.722188
sg19
I20
sg20
F60999.5
sbsI21
(iparticle_structures
DetectorHit
p756
(dp757
g14
F103929.0
sg15
F4.91334
sg16
F567.355
sg17
F363.41560000000004
sg18
F9.08022
sg19
I21
sg20
F107602.0
sbsI22
(iparticle_structures
DetectorHit
p758
(dp759
g14
F103928.0
sg15
F5.33451
sg16
F566.437
sg17
F373.9756
sg18
F9.17553
sg19
I22
sg20
F109537.0
sbsI23
(iparticle_structures
DetectorHit
p760
(dp761
g14
F103928.0
sg15
F5.5828
sg16
F566.242
sg17
F381.65560000000005
sg18
F9.2543
sg19
I23
sg20
F110947.0
sbsI24
(iparticle_structures
DetectorHit
p762
(dp763
g14
F103262.0
sg15
F16.5003
sg16
F448.316
sg17
F401.1956
sg18
F10.3304
sg19
I24
sg20
F115337.0
sbsI25
(iparticle_structures
DetectorHit
p764
(dp765
g14
F103261.0
sg15
F17.5551
sg16
F450.849
sg17
F413.28559999999993
sg18
F10.7752
sg19
I25
sg20
F118117.0
sbsI26
(iparticle_structures
DetectorHit
p766
(dp767
g14
F103260.0
sg15
F17.3124
sg16
F451.982
sg17
F432.7955999999999
sg18
F11.5317
sg19
I26
sg20
F122582.0
sbssg64
I1
sg65
I1
sg66
I2212
sbs(iparticle_structures
ParticleID
p768
(dp769
g3
I29347346
sg4
I1008
sb(iparticle_structures
ParticleFlow
p770
(dp771
g3
I29347346
sg7
(dp772
sg4
I1008
sg9
(dp773
sg60
(dp774
I19
(iparticle_structures
DetectorHit
p775
(dp776
g14
F97960.4
sg15
F26.2301
sg16
F945.055
sg17
F55.51060000000007
sg18
F-2.36602
sg19
I19
sg20
F51693.9
sbsI20
(iparticle_structures
DetectorHit
p777
(dp778
g14
F97960.6
sg15
F35.9199
sg16
F748.345
sg17
F129.2826
sg18
F0.921962
sg19
I20
sg20
F60999.5
sbsI21
(iparticle_structures
DetectorHit
p779
(dp780
g14
F97747.3
sg15
F-32.1584
sg16
F619.204
sg17
F428.0756000000001
sg18
F-12.3372
sg19
I21
sg20
F107602.0
sbsI22
(iparticle_structures
DetectorHit
p781
(dp782
g14
F97746.9
sg15
F-31.5208
sg16
F618.272
sg17
F440.3256000000001
sg18
F-12.9638
sg19
I22
sg20
F109537.0
sbsI23
(iparticle_structures
DetectorHit
p783
(dp784
g14
F97746.6
sg15
F-32.9953
sg16
F618.998
sg17
F449.25559999999996
sg18
F-13.4297
sg19
I23
sg20
F110947.0
sbsI24
(iparticle_structures
DetectorHit
p785
(dp786
g14
F97217.6
sg15
F-53.1164
sg16
F600.991
sg17
F476.5455999999999
sg18
F-15.7501
sg19
I24
sg20
F115337.0
sbsI25
(iparticle_structures
DetectorHit
p787
(dp788
g14
F97217.0
sg15
F-52.0596
sg16
F600.92
sg17
F493.7356
sg18
F-17.2641
sg19
I25
sg20
F118117.0
sbsI26
(iparticle_structures
DetectorHit
p789
(dp790
g14
F97215.6
sg15
F-49.8905
sg16
F600.494
sg17
F521.3556000000001
sg18
F-19.6182
sg19
I26
sg20
F122582.0
sbssg64
I19
sg65
I1
sg66
I2212
sbs(iparticle_structures
ParticleID
p791
(dp792
g3
I7273696
sg4
I1008
sb(iparticle_structures
ParticleFlow
p793
(dp794
g3
I7273696
sg7
(dp795
sg4
I1008
sg9
(dp796
sg60
(dp797
I6
(iparticle_structures
DetectorHit
p798
(dp799
g14
F102814.0
sg15
F19.1186
sg16
F1309.05
sg17
F-304.3374
sg18
F1.14251
sg19
I6
sg20
F21786.8
sbsI7
(iparticle_structures
DetectorHit
p800
(dp801
g14
F102816.0
sg15
F19.5251
sg16
F1175.15
sg17
F-289.8384
sg18
F1.3688
sg19
I7
sg20
F22997.7
sbsI8
(iparticle_structures
DetectorHit
p802
(dp803
g14
F102815.0
sg15
F13.238
sg16
F1234.81
sg17
F-251.03639999999996
sg18
F1.94718
sg19
I8
sg20
F26350.2
sbsI9
(iparticle_structures
DetectorHit
p804
(dp805
g14
F102814.0
sg15
F9.73957
sg16
F1272.48
sg17
F-238.02639999999997
sg18
F2.06683
sg19
I9
sg20
F27417.0
sbsI10
(iparticle_structures
DetectorHit
p806
(dp807
g14
F102814.0
sg15
F7.506
sg16
F1284.93
sg17
F-224.0634
sg18
F2.15613
sg19
I10
sg20
F28536.2
sbsI11
(iparticle_structures
DetectorHit
p808
(dp809
g14
F102813.0
sg15
F6.84484
sg16
F1285.38
sg17
F-180.62339999999995
sg18
F2.40711
sg19
I11
sg20
F32011.4
sbsI13
(iparticle_structures
DetectorHit
p810
(dp811
g14
F102812.0
sg15
F8.51702
sg16
F1285.53
sg17
F-127.64839999999992
sg18
F2.71764
sg19
I13
sg20
F36250.5
sbsI14
(iparticle_structures
DetectorHit
p812
(dp813
g14
F102812.0
sg15
F8.82812
sg16
F1285.68
sg17
F-115.1694
sg18
F2.80256
sg19
I14
sg20
F37248.3
sbsI15
(iparticle_structures
DetectorHit
p814
(dp815
g14
F102812.0
sg15
F8.48004
sg16
F1284.93
sg17
F-102.21839999999997
sg18
F2.88825
sg19
I15
sg20
F38284.3
sbsI16
(iparticle_structures
DetectorHit
p816
(dp817
g14
F102812.0
sg15
F16.5299
sg16
F1277.18
sg17
F-60.381399999999985
sg18
F3.22135
sg19
I16
sg20
F41636.7
sbsI17
(iparticle_structures
DetectorHit
p818
(dp819
g14
F102814.0
sg15
F23.9077
sg16
F1054.23
sg17
F-20.592399999999998
sg18
F3.94865
sg19
I17
sg20
F44989.2
sbsI18
(iparticle_structures
DetectorHit
p820
(dp821
g14
F102815.0
sg15
F-1.09852
sg16
F1008.41
sg17
F10.551600000000008
sg18
F4.53194
sg19
I18
sg20
F48341.7
sbsI19
(iparticle_structures
DetectorHit
p822
(dp823
g14
F102816.0
sg15
F-23.4402
sg16
F911.198
sg17
F44.697599999999966
sg18
F3.9252
sg19
I19
sg20
F51694.1
sbsI20
(iparticle_structures
DetectorHit
p824
(dp825
g14
F102817.0
sg15
F-40.5788
sg16
F565.577
sg17
F102.81460000000004
sg18
F0.772547
sg19
I20
sg20
F60999.5
sbsI21
(iparticle_structures
DetectorHit
p826
(dp827
g14
F102557.0
sg15
F35.2716
sg16
F552.666
sg17
F354.5856000000001
sg18
F11.4908
sg19
I21
sg20
F107602.0
sbsI22
(iparticle_structures
DetectorHit
p828
(dp829
g14
F102557.0
sg15
F35.4038
sg16
F552.442
sg17
F365.00559999999996
sg18
F12.155
sg19
I22
sg20
F109537.0
sbsI23
(iparticle_structures
DetectorHit
p830
(dp831
g14
F102557.0
sg15
F35.5268
sg16
F553.226
sg17
F372.6056000000001
sg18
F12.6404
sg19
I23
sg20
F110947.0
sbsI24
(iparticle_structures
DetectorHit
p832
(dp833
g14
F101888.0
sg15
F121.526
sg16
F522.551
sg17
F395.27559999999994
sg18
F17.1435
sg19
I24
sg20
F115337.0
sbsI25
(iparticle_structures
DetectorHit
p834
(dp835
g14
F101887.0
sg15
F121.862
sg16
F521.974
sg17
F409.52559999999994
sg18
F20.4743
sg19
I25
sg20
F118117.0
sbsI26
(iparticle_structures
DetectorHit
p836
(dp837
g14
F101886.0
sg15
F120.017
sg16
F522.382
sg17
F432.40560000000005
sg18
F25.7855
sg19
I26
sg20
F122582.0
sbssg64
I6
sg65
I1
sg66
I2212
sbs(iparticle_structures
ParticleID
p838
(dp839
g3
I5948884
sg4
I1001
sb(iparticle_structures
ParticleFlow
p840
(dp841
g3
I5948884
sg7
(dp842
sg4
I1001
sg9
(dp843
sg60
(dp844
I17
(iparticle_structures
DetectorHit
p845
(dp846
g14
F119387.0
sg15
F-9.58393
sg16
F1262.34
sg17
F-21.77940000000001
sg18
F0.477516
sg19
I17
sg20
F44989.2
sbsI18
(iparticle_structures
DetectorHit
p847
(dp848
g14
F119387.0
sg15
F-12.6808
sg16
F1223.36
sg17
F10.935600000000022
sg18
F0.155338
sg19
I18
sg20
F48341.7
sbsI19
(iparticle_structures
DetectorHit
p849
(dp850
g14
F119388.0
sg15
F-13.0018
sg16
F1138.8
sg17
F46.62059999999997
sg18
F-0.208268
sg19
I19
sg20
F51694.0
sbsI20
(iparticle_structures
DetectorHit
p851
(dp852
g14
F119389.0
sg15
F-10.5296
sg16
F847.611
sg17
F116.89160000000004
sg18
F-1.12066
sg19
I20
sg20
F60999.5
sbsI21
(iparticle_structures
DetectorHit
p853
(dp854
g14
F119211.0
sg15
F-11.3955
sg16
F909.726
sg17
F462.31560000000013
sg18
F-11.5997
sg19
I21
sg20
F107602.0
sbsI26
(iparticle_structures
DetectorHit
p855
(dp856
g14
F118325.0
sg15
F-26.0184
sg16
F963.544
sg17
F582.5856000000001
sg18
F-14.1424
sg19
I26
sg20
F122582.0
sbssg64
I17
sg65
I1
sg66
I2212
sbs(iparticle_structures
ParticleID
p857
(dp858
g3
I18915956
sg4
I1006
sb(iparticle_structures
ParticleFlow
p859
(dp860
g3
I18915956
sg7
(dp861
sg4
I1006
sg9
(dp862
I1
(lp863
(iparticle_structures
DetectorHit
p864
(dp865
g14
F103514.0
sg15
F37.9839
sg16
F2106.25
sg17
F-633.0692
sg18
F0.0338526
sg19
I1
sg20
F4708.96
sbaI1005
aI2212
assg60
(dp866
I26
(iparticle_structures
DetectorHit
p867
(dp868
g14
F101843.0
sg15
F-173.965
sg16
F678.096
sg17
F468.0455999999999
sg18
F-104.5
sg19
I26
sg20
F122582.0
sbssg64
I26
sg65
I1005
sg66
I2212
sbs(iparticle_structures
ParticleID
p869
(dp870
g3
I27044551
sg4
I1004
sb(iparticle_structures
ParticleFlow
p871
(dp872
g3
I27044551
sg7
(dp873
sg4
I1004
sg9
(dp874
sg60
(dp875
I26
(iparticle_structures
DetectorHit
p876
(dp877
g14
F81526.0
sg15
F34.2601
sg16
F241.781
sg17
F356.8556000000001
sg18
F-0.682731
sg19
I26
sg20
F122582.0
sbssg64
I26
sg65
I1003
sg66
I2212
sbs(iparticle_structures
ParticleID
p878
(dp879
g3
I9402723
sg4
I1002
sb(iparticle_structures
ParticleFlow
p880
(dp881
g3
I9402723
sg7
(dp882
sg4
I1002
sg9
(dp883
I1
(lp884
(iparticle_structures
DetectorHit
p885
(dp886
g14
F93456.6
sg15
F-11.3089
sg16
F1962.37
sg17
F-629.6919
sg18
F-2.00236
sg19
I1
sg20
F4708.89
sbaI1001
aI2212
asI6
(lp887
(iparticle_structures
DetectorHit
p888
(dp889
g14
F93468.1
sg15
F-27.4576
sg16
F1287.69
sg17
F-292.48839999999996
sg18
F-3.17838
sg19
I6
sg20
F21786.7
sbaI1001
aI2212
asI7
(lp890
(iparticle_structures
DetectorHit
p891
(dp892
g14
F93469.9
sg15
F-27.1276
sg16
F1152.88
sg17
F-276.82239999999996
sg18
F-3.53206
sg19
I7
sg20
F22997.5
sbaI1001
aI2212
asI8
(lp893
(iparticle_structures
DetectorHit
p894
(dp895
g14
F93469.7
sg15
F-13.5269
sg16
F1161.72
sg17
F-235.3954
sg18
F-4.39335
sg19
I8
sg20
F26349.9
sbaI1001
aI2212
asI9
(lp896
(iparticle_structures
DetectorHit
p897
(dp898
g14
F93469.4
sg15
F-2.91976
sg16
F1163.38
sg17
F-222.12439999999998
sg18
F-4.4891
sg19
I9
sg20
F27416.7
sbaI1001
aI2212
asI10
(lp899
(iparticle_structures
DetectorHit
p900
(dp901
g14
F93469.2
sg15
F2.02499
sg16
F1159.52
sg17
F-208.22339999999997
sg18
F-4.47079
sg19
I10
sg20
F28536.1
sbaI1001
aI2212
asI11
(lp902
(iparticle_structures
DetectorHit
p903
(dp904
g14
F93468.6
sg15
F1.50356
sg16
F1159.32
sg17
F-165.1214
sg18
F-4.3911
sg19
I11
sg20
F32011.2
sbaI1001
aI2212
asI13
(lp905
(iparticle_structures
DetectorHit
p906
(dp907
g14
F93372.3
sg15
F-21.2865
sg16
F1167.97
sg17
F-112.38639999999998
sg18
F-4.66327
sg19
I13
sg20
F36250.2
sbaI1001
aI2212
asI14
(lp908
(iparticle_structures
DetectorHit
p909
(dp910
g14
F93372.1
sg15
F-22.0503
sg16
F1167.86
sg17
F-99.90239999999994
sg18
F-4.89344
sg19
I14
sg20
F37248.0
sbaI1001
aI2212
asI15
(lp911
(iparticle_structures
DetectorHit
p912
(dp913
g14
F93371.9
sg15
F-21.7502
sg16
F1167.26
sg17
F-86.95039999999995
sg18
F-5.13828
sg19
I15
sg20
F38284.0
sbaI1001
aI2212
asI16
(lp914
(iparticle_structures
DetectorHit
p915
(dp916
g14
F93372.2
sg15
F-36.6218
sg16
F1135.86
sg17
F-45.30740000000003
sg18
F-6.03603
sg19
I16
sg20
F41636.4
sbaI1001
aI2212
asI17
(lp917
(iparticle_structures
DetectorHit
p918
(dp919
g14
F93374.9
sg15
F-51.3954
sg16
F888.755
sg17
F-7.2853999999999814
sg18
F-7.77013
sg19
I17
sg20
F44989.0
sbaI1001
aI2212
asI18
(lp920
(iparticle_structures
DetectorHit
p921
(dp922
g14
F93374.7
sg15
F3.99705
sg16
F898.696
sg17
F21.56759999999997
sg18
F-9.12556
sg19
I18
sg20
F48341.6
sbaI1001
aI2212
asI19
(lp923
(iparticle_structures
DetectorHit
p924
(dp925
g14
F93375.0
sg15
F63.1049
sg16
F857.244
sg17
F56.53460000000007
sg18
F-7.5339
sg19
I19
sg20
F51693.9
sbaI1001
aI2212
asI20
(lp926
(iparticle_structures
DetectorHit
p927
(dp928
g14
F93375.4
sg15
F98.3817
sg16
F644.977
sg17
F124.19560000000001
sg18
F1.70513
sg19
I20
sg20
F60999.5
sbaI1001
aI2212
asI21
(lp929
(iparticle_structures
DetectorHit
p930
(dp931
g14
F93168.7
sg15
F134.175
sg16
F611.625
sg17
F430.52559999999994
sg18
F67.6403
sg19
I21
sg20
F107602.0
sbaI1001
aI2212
asI22
(lp932
(iparticle_structures
DetectorHit
p933
(dp934
g14
F93168.2
sg15
F136.405
sg16
F611.934
sg17
F443.2356
sg18
F70.4454
sg19
I22
sg20
F109537.0
sbaI1001
aI2212
assg60
(dp935
I26
(iparticle_structures
DetectorHit
p936
(dp937
g14
F92230.9
sg15
F321.098
sg16
F648.279
sg17
F533.9056
sg18
F110.747
sg19
I26
sg20
F122582.0
sbssg64
I26
sg65
I1001
sg66
I2212
sbs(iparticle_structures
ParticleID
p938
(dp939
g3
I27264201
sg4
I1003
sb(iparticle_structures
ParticleFlow
p940
(dp941
g3
I27264201
sg7
(dp942
sg4
I1003
sg9
(dp943
I19
(lp944
(iparticle_structures
DetectorHit
p945
(dp946
g14
F99416.6
sg15
F26.602
sg16
F949.714
sg17
F54.03660000000002
sg18
F-3.20493
sg19
I19
sg20
F51693.9
sbaI1002
aI2212
asI20
(lp947
(iparticle_structures
DetectorHit
p948
(dp949
g14
F99417.0
sg15
F45.2217
sg16
F736.733
sg17
F125.94259999999997
sg18
F0.556484
sg19
I20
sg20
F60999.5
sbaI1002
aI2212
asI21
(lp950
(iparticle_structures
DetectorHit
p951
(dp952
g14
F99225.6
sg15
F-32.6893
sg16
F699.524
sg17
F456.1256000000001
sg18
F-11.4492
sg19
I21
sg20
F107602.0
sbaI1002
aI2212
asI22
(lp953
(iparticle_structures
DetectorHit
p954
(dp955
g14
F99225.2
sg15
F-32.608
sg16
F697.836
sg17
F469.74559999999997
sg18
F-12.0901
sg19
I22
sg20
F109537.0
sbaI1002
aI2212
asI23
(lp956
(iparticle_structures
DetectorHit
p957
(dp958
g14
F99224.9
sg15
F-31.0598
sg16
F698.383
sg17
F479.66560000000004
sg18
F-12.5491
sg19
I23
sg20
F110947.0
sbaI1002
aI2212
assg60
(dp959
I24
(iparticle_structures
DetectorHit
p960
(dp961
g14
F98313.3
sg15
F230.224
sg16
F694.132
sg17
F510.7156
sg18
F-3.85501
sg19
I24
sg20
F115337.0
sbsI25
(iparticle_structures
DetectorHit
p962
(dp963
g14
F98312.8
sg15
F230.843
sg16
F693.875
sg17
F530.3356000000001
sg18
F2.66777
sg19
I25
sg20
F118117.0
sbsI26
(iparticle_structures
DetectorHit
p964
(dp965
g14
F98311.8
sg15
F223.857
sg16
F685.357
sg17
F561.6756
sg18
F13.0408
sg19
I26
sg20
F122582.0
sbssg64
I24
sg65
I1002
sg66
I2212
sbs(iparticle_structures
ParticleID
p966
(dp967
g3
I29464796
sg4
I1002
sb(iparticle_structures
ParticleFlow
p968
(dp969
g3
I29464796
sg7
(dp970
sg4
I1002
sg9
(dp971
I19
(lp972
(iparticle_structures
DetectorHit
p973
(dp974
g14
F114113.0
sg15
F129.771
sg16
F1035.85
sg17
F47.41560000000004
sg18
F-16.34
sg19
I19
sg20
F51694.0
sbaI1001
aI2212
asI20
(lp975
(iparticle_structures
DetectorHit
p976
(dp977
g14
F114114.0
sg15
F210.89
sg16
F715.53
sg17
F111.16160000000002
sg18
F-0.981677
sg19
I20
sg20
F60999.5
sbaI1001
aI2212
asI21
(lp978
(iparticle_structures
DetectorHit
p979
(dp980
g14
F113864.0
sg15
F107.447
sg16
F686.119
sg17
F392.9356
sg18
F50.316
sg19
I21
sg20
F107602.0
sbaI1001
aI2212
asI22
(lp981
(iparticle_structures
DetectorHit
p982
(dp983
g14
F113864.0
sg15
F107.018
sg16
F686.077
sg17
F404.5956000000001
sg18
F52.1419
sg19
I22
sg20
F109537.0
sbaI1001
aI2212
asI23
(lp984
(iparticle_structures
DetectorHit
p985
(dp986
g14
F113863.0
sg15
F106.561
sg16
F685.266
sg17
F413.0856000000001
sg18
F53.4624
sg19
I23
sg20
F110947.0
sbaI1001
aI2212
assg60
(dp987
I24
(iparticle_structures
DetectorHit
p988
(dp989
g14
F112409.0
sg15
F-308.48
sg16
F545.771
sg17
F435.0555999999999
sg18
F44.6933
sg19
I24
sg20
F115337.0
sbsI25
(iparticle_structures
DetectorHit
p990
(dp991
g14
F112408.0
sg15
F-309.122
sg16
F546.111
sg17
F448.5555999999999
sg18
F37.0603
sg19
I25
sg20
F118117.0
sbsI26
(iparticle_structures
DetectorHit
p992
(dp993
g14
F112407.0
sg15
F-307.484
sg16
F546.434
sg17
F470.2256
sg18
F24.8273
sg19
I26
sg20
F122582.0
sbssg64
I24
sg65
I1001
sg66
I2212
sbs(iparticle_structures
ParticleID
p994
(dp995
g3
I19552555
sg4
I1010
sb(iparticle_structures
ParticleFlow
p996
(dp997
g3
I19552555
sg7
(dp998
sg4
I1010
sg9
(dp999
sg60
(dp1000
I1
(iparticle_structures
DetectorHit
p1001
(dp1002
g14
F94170.7
sg15
F11.1564
sg16
F1965.8
sg17
F-629.2925
sg18
F0.675477
sg19
I1
sg20
F4708.88
sbsI6
(iparticle_structures
DetectorHit
p1003
(dp1004
g14
F94182.4
sg15
F30.4088
sg16
F1271.9
sg17
F-294.6384
sg18
F2.79191
sg19
I6
sg20
F21786.7
sbsI7
(iparticle_structures
DetectorHit
p1005
(dp1006
g14
F94184.1
sg15
F30.0586
sg16
F1137.12
sg17
F-279.2924
sg18
F3.18364
sg19
I7
sg20
F22997.6
sbsI8
(iparticle_structures
DetectorHit
p1007
(dp1008
g14
F94183.8
sg15
F16.9845
sg16
F1156.17
sg17
F-238.64639999999997
sg18
F4.14452
sg19
I8
sg20
F26350.0
sbsI9
(iparticle_structures
DetectorHit
p1009
(dp1010
g14
F94183.4
sg15
F8.52809
sg16
F1165.83
sg17
F-225.49039999999997
sg18
F4.28893
sg19
I9
sg20
F27416.8
sbsI10
(iparticle_structures
DetectorHit
p1011
(dp1012
g14
F94183.1
sg15
F5.22941
sg16
F1168.4
sg17
F-211.60939999999994
sg18
F4.36291
sg19
I10
sg20
F28536.1
sbsI11
(iparticle_structures
DetectorHit
p1013
(dp1014
g14
F94182.5
sg15
F5.45565
sg16
F1167.59
sg17
F-168.5204
sg18
F4.56266
sg19
I11
sg20
F32011.2
sbsI13
(iparticle_structures
DetectorHit
p1015
(dp1016
g14
F94181.8
sg15
F5.47071
sg16
F1167.54
sg17
F-115.9624
sg18
F4.80421
sg19
I13
sg20
F36250.3
sbsI14
(iparticle_structures
DetectorHit
p1017
(dp1018
g14
F94181.6
sg15
F5.93374
sg16
F1166.92
sg17
F-103.5974
sg18
F4.86271
sg19
I14
sg20
F37248.1
sbsI15
(iparticle_structures
DetectorHit
p1019
(dp1020
g14
F94181.3
sg15
F5.95562
sg16
F1167.0
sg17
F-90.76239999999996
sg18
F4.92792
sg19
I15
sg20
F38284.1
sbsI16
(iparticle_structures
DetectorHit
p1021
(dp1022
g14
F94181.4
sg15
F20.2751
sg16
F1145.94
sg17
F-49.395399999999995
sg18
F5.28092
sg19
I16
sg20
F41636.5
sbsI17
(iparticle_structures
DetectorHit
p1023
(dp1024
g14
F94184.0
sg15
F33.0791
sg16
F907.044
sg17
F-11.093399999999974
sg18
F6.35829
sg19
I17
sg20
F44989.0
sbsI18
(iparticle_structures
DetectorHit
p1025
(dp1026
g14
F94184.0
sg15
F-8.80937
sg16
F901.131
sg17
F18.018599999999992
sg18
F7.18019
sg19
I18
sg20
F48341.6
sbsI19
(iparticle_structures
DetectorHit
p1027
(dp1028
g14
F94184.5
sg15
F-43.3254
sg16
F839.787
sg17
F52.37160000000006
sg18
F5.83335
sg19
I19
sg20
F51693.9
sbsI20
(iparticle_structures
DetectorHit
p1029
(dp1030
g14
F94185.1
sg15
F-52.9011
sg16
F576.817
sg17
F114.24160000000006
sg18
F1.04654
sg19
I20
sg20
F60999.5
sbsI21
(iparticle_structures
DetectorHit
p1031
(dp1032
g14
F93950.1
sg15
F-77.6967
sg16
F513.143
sg17
F372.5455999999999
sg18
F-35.4041
sg19
I21
sg20
F107602.0
sbsI22
(iparticle_structures
DetectorHit
p1033
(dp1034
g14
F93949.7
sg15
F-78.9947
sg16
F512.669
sg17
F383.1156000000001
sg18
F-37.0121
sg19
I22
sg20
F109537.0
sbsI23
(iparticle_structures
DetectorHit
p1035
(dp1036
g14
F93949.4
sg15
F-79.6192
sg16
F512.186
sg17
F390.8055999999999
sg18
F-38.2044
sg19
I23
sg20
F110947.0
sbsI24
(iparticle_structures
DetectorHit
p1037
(dp1038
g14
F93233.2
sg15
F-161.776
sg16
F418.474
sg17
F411.14560000000006
sg18
F-45.0172
sg19
I24
sg20
F115337.0
sbsI25
(iparticle_structures
DetectorHit
p1039
(dp1040
g14
F93232.4
sg15
F-161.788
sg16
F416.585
sg17
F423.6056000000001
sg18
F-49.8393
sg19
I25
sg20
F118117.0
sbsI26
(iparticle_structures
DetectorHit
p1041
(dp1042
g14
F93231.4
sg15
F-160.701
sg16
F416.701
sg17
F443.5856000000001
sg18
F-57.5576
sg19
I26
sg20
F122582.0
sbssg64
I1
sg65
I1
sg66
I2212
sbs.